; Function Attrs: mustprogress uwtable
define dso_local void @_ZN9cmFileAPI15BuildToolchainsERKNS_6ObjectE(ptr dead_on_unwind noalias writable sret(%"class.Json::Value") align 8 %0, ptr noundef nonnull align 8 dereferenceable(296) %1, ptr noundef nonnull readonly align 8 captures(none) dereferenceable(16) %2) local_unnamed_addr #5 align 2 personality ptr @__gxx_personality_v0 {
  %4 = alloca %"class.Json::Value", align 8
  %5 = alloca %"class.Json::Value", align 8
  %6 = getelementptr inbounds nuw i8, ptr %2, i64 8
  %7 = load i64, ptr %6, align 8, !tbaa !190
  tail call void @_Z23cmFileAPIToolchainsDumpR9cmFileAPIm(ptr dead_on_unwind writable sret(%"class.Json::Value") align 8 %0, ptr noundef nonnull align 8 dereferenceable(296) %1, i64 noundef %7)
  call void @llvm.lifetime.start.p0(i64 40, ptr nonnull %4) #24
  %8 = load i32, ptr %2, align 8, !tbaa !188
  %9 = sext i32 %8 to i64
  %10 = getelementptr inbounds nuw [6 x ptr], ptr @_ZZN9cmFileAPI14ObjectKindNameENS_10ObjectKindEE15objectKindNames, i64 0, i64 %9
  %11 = load ptr, ptr %10, align 8, !tbaa !80
  invoke void @_ZN4Json5ValueC1EPKc(ptr noundef nonnull align 8 dereferenceable(40) %4, ptr noundef %11)
          to label %12 unwind label %23

12:                                               ; preds = %3
  %13 = invoke noundef nonnull align 8 dereferenceable(40) ptr @_ZN4Json5ValueixEPKc(ptr noundef nonnull align 8 dereferenceable(40) %0, ptr noundef nonnull @.str.43)
          to label %14 unwind label %25

14:                                               ; preds = %12
  %15 = call noundef nonnull align 8 dereferenceable(40) ptr @_ZN4Json5ValueaSEOS0_(ptr noundef nonnull align 8 dereferenceable(40) %13, ptr noundef nonnull align 8 dereferenceable(40) %4) #24
  call void @_ZN4Json5ValueD1Ev(ptr noundef nonnull align 8 dereferenceable(40) %4) #24
  call void @llvm.lifetime.end.p0(i64 40, ptr nonnull %4) #24
  %16 = invoke noundef nonnull align 8 dereferenceable(40) ptr @_ZN4Json5ValueixEPKc(ptr noundef nonnull align 8 dereferenceable(40) %0, ptr noundef nonnull @.str.35)
          to label %17 unwind label %28

17:                                               ; preds = %14
  %18 = load i64, ptr %6, align 8, !tbaa !190
  %19 = icmp eq i64 %18, 1
  br i1 %19, label %20, label %32

20:                                               ; preds = %17
  call void @llvm.lifetime.start.p0(i64 40, ptr nonnull %5) #24
  invoke void @_ZN9cmFileAPI12BuildVersionEjj(ptr dead_on_unwind nonnull writable sret(%"class.Json::Value") align 8 %5, i32 noundef 1, i32 noundef 0)
          to label %21 unwind label %30

21:                                               ; preds = %20
  %22 = call noundef nonnull align 8 dereferenceable(40) ptr @_ZN4Json5ValueaSEOS0_(ptr noundef nonnull align 8 dereferenceable(40) %16, ptr noundef nonnull align 8 dereferenceable(40) %5) #24
  call void @_ZN4Json5ValueD1Ev(ptr noundef nonnull align 8 dereferenceable(40) %5) #24
  call void @llvm.lifetime.end.p0(i64 40, ptr nonnull %5) #24
  br label %32

23:                                               ; preds = %3
  %24 = landingpad { ptr, i32 }
          cleanup
  br label %27

25:                                               ; preds = %12
  %26 = landingpad { ptr, i32 }
          cleanup
  call void @_ZN4Json5ValueD1Ev(ptr noundef nonnull align 8 dereferenceable(40) %4) #24
  br label %27

27:                                               ; preds = %25, %23
  %.pn = phi { ptr, i32 } [ %26, %25 ], [ %24, %23 ]
  call void @llvm.lifetime.end.p0(i64 40, ptr nonnull %4) #24
  br label %33

28:                                               ; preds = %14
  %29 = landingpad { ptr, i32 }
          cleanup
  br label %33

30:                                               ; preds = %20
  %31 = landingpad { ptr, i32 }
          cleanup
  call void @llvm.lifetime.end.p0(i64 40, ptr nonnull %5) #24
  br label %33

32:                                               ; preds = %21, %17
  ret void

33:                                               ; preds = %28, %30, %27
  %.pn12.pn = phi { ptr, i32 } [ %.pn, %27 ], [ %31, %30 ], [ %29, %28 ]
  call void @_ZN4Json5ValueD1Ev(ptr noundef nonnull align 8 dereferenceable(40) %0) #24
  resume { ptr, i32 } %.pn12.pn
}